<?xml version="1.0"?>
<?xml-stylesheet type="text/xsl" href="pdml2html.xsl"?>
<!-- You can find pdml2html.xsl in /usr/share/wireshark or at https://code.wireshark.org/review/gitweb?p=wireshark.git;a=blob_plain;f=pdml2html.xsl. -->
<pdml version="0" creator="wireshark/2.2.6" time="Wed Nov 29 15:09:56 2017" capture_file="/tmp/wireshark_toto_20171129150622_8a2OBr.pcapng">
<packet>
  <proto name="geninfo" pos="0" showname="General information" size="104">
    <field name="num" pos="0" show="1" showname="Number" value="1" size="104"/>
    <field name="len" pos="0" show="104" showname="Frame Length" value="68" size="104"/>
    <field name="caplen" pos="0" show="104" showname="Captured Length" value="68" size="104"/>
    <field name="timestamp" pos="0" show="Nov 29, 2017 15:06:57.198265820 CET" showname="Captured Time" value="1511964417.198265820" size="104"/>
  </proto>
  <proto name="frame" showname="Frame 1: 104 bytes on wire (832 bits), 104 bytes captured (832 bits) on interface 0" size="104" pos="0">
    <field name="frame.interface_id" showname="Interface id: 0 (toto)" size="0" pos="0" show="0"/>
    <field name="frame.encap_type" showname="Encapsulation type: Raw IP (7)" size="0" pos="0" show="7"/>
    <field name="frame.time" showname="Arrival Time: Nov 29, 2017 15:06:57.198265820 CET" size="0" pos="0" show="Nov 29, 2017 15:06:57.198265820 CET"/>
    <field name="frame.offset_shift" showname="Time shift for this packet: 0.000000000 seconds" size="0" pos="0" show="0.000000000"/>
    <field name="frame.time_epoch" showname="Epoch Time: 1511964417.198265820 seconds" size="0" pos="0" show="1511964417.198265820"/>
    <field name="frame.time_delta" showname="Time delta from previous captured frame: 0.000000000 seconds" size="0" pos="0" show="0.000000000"/>
    <field name="frame.time_delta_displayed" showname="Time delta from previous displayed frame: 0.000000000 seconds" size="0" pos="0" show="0.000000000"/>
    <field name="frame.time_relative" showname="Time since reference or first frame: 0.000000000 seconds" size="0" pos="0" show="0.000000000"/>
    <field name="frame.number" showname="Frame Number: 1" size="0" pos="0" show="1"/>
    <field name="frame.len" showname="Frame Length: 104 bytes (832 bits)" size="0" pos="0" show="104"/>
    <field name="frame.cap_len" showname="Capture Length: 104 bytes (832 bits)" size="0" pos="0" show="104"/>
    <field name="frame.marked" showname="Frame is marked: False" size="0" pos="0" show="0"/>
    <field name="frame.ignored" showname="Frame is ignored: False" size="0" pos="0" show="0"/>
    <field name="frame.protocols" showname="Protocols in frame: raw:ipv6:icmpv6:data" size="0" pos="0" show="raw:ipv6:icmpv6:data"/>
    <field name="frame.coloring_rule.name" showname="Coloring Rule Name: ICMP" size="0" pos="0" show="ICMP"/>
    <field name="frame.coloring_rule.string" showname="Coloring Rule String: icmp || icmpv6" size="0" pos="0" show="icmp || icmpv6"/>
  </proto>
  <proto name="raw" showname="Raw packet data" size="104" pos="0"/>
  <proto name="ipv6" showname="Internet Protocol Version 6, Src: fc00:1234:ffff::1, Dst: fc00:1234:ffff::10" size="40" pos="0">
    <field name="ipv6.version" showname="0110 .... = Version: 6" size="1" pos="0" show="6" value="6" unmaskedvalue="60"/>
    <field name="ip.version" showname="0110 .... = Version: 6 [This field makes the filter match on &quot;ip.version == 6&quot; possible]" hide="yes" size="1" pos="0" show="6" value="6" unmaskedvalue="60"/>
    <field name="ipv6.tclass" showname=".... 0000 0000 .... .... .... .... .... = Traffic class: 0x00 (DSCP: CS0, ECN: Not-ECT)" size="4" pos="0" show="0x00000000" value="0" unmaskedvalue="60072f2f">
      <field name="ipv6.tclass.dscp" showname=".... 0000 00.. .... .... .... .... .... = Differentiated Services Codepoint: Default (0)" size="4" pos="0" show="0" value="0" unmaskedvalue="60072f2f"/>
      <field name="ipv6.tclass.ecn" showname=".... .... ..00 .... .... .... .... .... = Explicit Congestion Notification: Not ECN-Capable Transport (0)" size="4" pos="0" show="0" value="0" unmaskedvalue="60072f2f"/>
    </field>
    <field name="ipv6.flow" showname=".... .... .... 0111 0010 1111 0010 1111 = Flow label: 0x72f2f" size="4" pos="0" show="0x00072f2f" value="72F2F" unmaskedvalue="60072f2f"/>
    <field name="ipv6.plen" showname="Payload length: 64" size="2" pos="4" show="64" value="0040"/>
    <field name="ipv6.nxt" showname="Next header: ICMPv6 (58)" size="1" pos="6" show="58" value="3a"/>
    <field name="ipv6.hlim" showname="Hop limit: 64" size="1" pos="7" show="64" value="40"/>
    <field name="ipv6.src" showname="Source: fc00:1234:ffff::1" size="16" pos="8" show="fc00:1234:ffff::1" value="fc001234ffff00000000000000000001"/>
    <field name="ipv6.addr" showname="Source or Destination Address: fc00:1234:ffff::1" hide="yes" size="16" pos="8" show="fc00:1234:ffff::1" value="fc001234ffff00000000000000000001"/>
    <field name="ipv6.src_host" showname="Source Host: fc00:1234:ffff::1" hide="yes" size="16" pos="8" show="fc00:1234:ffff::1" value="fc001234ffff00000000000000000001"/>
    <field name="ipv6.host" showname="Source or Destination Host: fc00:1234:ffff::1" hide="yes" size="16" pos="8" show="fc00:1234:ffff::1" value="fc001234ffff00000000000000000001"/>
    <field name="ipv6.dst" showname="Destination: fc00:1234:ffff::10" size="16" pos="24" show="fc00:1234:ffff::10" value="fc001234ffff00000000000000000010"/>
    <field name="ipv6.addr" showname="Source or Destination Address: fc00:1234:ffff::10" hide="yes" size="16" pos="24" show="fc00:1234:ffff::10" value="fc001234ffff00000000000000000010"/>
    <field name="ipv6.dst_host" showname="Destination Host: fc00:1234:ffff::10" hide="yes" size="16" pos="24" show="fc00:1234:ffff::10" value="fc001234ffff00000000000000000010"/>
    <field name="ipv6.host" showname="Source or Destination Host: fc00:1234:ffff::10" hide="yes" size="16" pos="24" show="fc00:1234:ffff::10" value="fc001234ffff00000000000000000010"/>
    <field name="" show="Source GeoIP: Unknown" size="16" pos="8" value="fc001234ffff00000000000000000001"/>
    <field name="" show="Destination GeoIP: Unknown" size="16" pos="24" value="fc001234ffff00000000000000000010"/>
  </proto>
  <proto name="icmpv6" showname="Internet Control Message Protocol v6" size="64" pos="40">
    <field name="icmpv6.type" showname="Type: Echo (ping) request (128)" size="1" pos="40" show="128" value="80"/>
    <field name="icmpv6.code" showname="Code: 0" size="1" pos="41" show="0" value="00"/>
    <field name="icmpv6.checksum" showname="Checksum: 0xe67d [correct]" size="2" pos="42" show="0x0000e67d" value="e67d"/>
    <field name="icmpv6.checksum.status" showname="Checksum Status: Good" size="0" pos="42" show="1"/>
    <field name="icmpv6.echo.identifier" showname="Identifier: 0x3099" size="2" pos="44" show="0x00003099" value="3099"/>
    <field name="icmpv6.echo.sequence_number" showname="Sequence: 1" size="2" pos="46" show="1" value="0001"/>
    <field name="icmpv6.no_resp" showname="No response seen" size="0" pos="40" show="" value="">
      <field name="_ws.expert" showname="Expert Info (Warning/Sequence): No response seen to ICMPv6 request in frame 1" size="0" pos="0">
        <field name="icmpv6.resp_not_found" showname="No response seen to ICMPv6 request in frame 1" size="0" pos="0" show="" value=""/>
        <field name="_ws.expert.message" showname="Message: No response seen to ICMPv6 request in frame 1" hide="yes" size="0" pos="0" show="No response seen to ICMPv6 request in frame 1"/>
        <field name="_ws.expert.severity" showname="Severity level: Warning" size="0" pos="0" show="6291456"/>
        <field name="_ws.expert.group" showname="Group: Sequence" size="0" pos="0" show="33554432"/>
      </field>
    </field>
    <field name="data" value="01bf1e5a000000006a06030000000000101112131415161718191a1b1c1d1e1f202122232425262728292a2b2c2d2e2f3031323334353637">
      <field name="data.data" showname="Data: 01bf1e5a000000006a060300000000001011121314151617..." size="56" pos="48" show="01:bf:1e:5a:00:00:00:00:6a:06:03:00:00:00:00:00:10:11:12:13:14:15:16:17:18:19:1a:1b:1c:1d:1e:1f:20:21:22:23:24:25:26:27:28:29:2a:2b:2c:2d:2e:2f:30:31:32:33:34:35:36:37" value="01bf1e5a000000006a06030000000000101112131415161718191a1b1c1d1e1f202122232425262728292a2b2c2d2e2f3031323334353637"/>
      <field name="data.len" showname="Length: 56" size="0" pos="48" show="56"/>
    </field>
  </proto>
</packet>

<packet>
  <proto name="geninfo" pos="0" showname="General information" size="104">
    <field name="num" pos="0" show="2" showname="Number" value="2" size="104"/>
    <field name="len" pos="0" show="104" showname="Frame Length" value="68" size="104"/>
    <field name="caplen" pos="0" show="104" showname="Captured Length" value="68" size="104"/>
    <field name="timestamp" pos="0" show="Nov 29, 2017 15:06:58.201169047 CET" showname="Captured Time" value="1511964418.201169047" size="104"/>
  </proto>
  <proto name="frame" showname="Frame 2: 104 bytes on wire (832 bits), 104 bytes captured (832 bits) on interface 0" size="104" pos="0">
    <field name="frame.interface_id" showname="Interface id: 0 (toto)" size="0" pos="0" show="0"/>
    <field name="frame.encap_type" showname="Encapsulation type: Raw IP (7)" size="0" pos="0" show="7"/>
    <field name="frame.time" showname="Arrival Time: Nov 29, 2017 15:06:58.201169047 CET" size="0" pos="0" show="Nov 29, 2017 15:06:58.201169047 CET"/>
    <field name="frame.offset_shift" showname="Time shift for this packet: 0.000000000 seconds" size="0" pos="0" show="0.000000000"/>
    <field name="frame.time_epoch" showname="Epoch Time: 1511964418.201169047 seconds" size="0" pos="0" show="1511964418.201169047"/>
    <field name="frame.time_delta" showname="Time delta from previous captured frame: 1.002903227 seconds" size="0" pos="0" show="1.002903227"/>
    <field name="frame.time_delta_displayed" showname="Time delta from previous displayed frame: 1.002903227 seconds" size="0" pos="0" show="1.002903227"/>
    <field name="frame.time_relative" showname="Time since reference or first frame: 1.002903227 seconds" size="0" pos="0" show="1.002903227"/>
    <field name="frame.number" showname="Frame Number: 2" size="0" pos="0" show="2"/>
    <field name="frame.len" showname="Frame Length: 104 bytes (832 bits)" size="0" pos="0" show="104"/>
    <field name="frame.cap_len" showname="Capture Length: 104 bytes (832 bits)" size="0" pos="0" show="104"/>
    <field name="frame.marked" showname="Frame is marked: False" size="0" pos="0" show="0"/>
    <field name="frame.ignored" showname="Frame is ignored: False" size="0" pos="0" show="0"/>
    <field name="frame.protocols" showname="Protocols in frame: raw:ipv6:icmpv6:data" size="0" pos="0" show="raw:ipv6:icmpv6:data"/>
    <field name="frame.coloring_rule.name" showname="Coloring Rule Name: ICMP" size="0" pos="0" show="ICMP"/>
    <field name="frame.coloring_rule.string" showname="Coloring Rule String: icmp || icmpv6" size="0" pos="0" show="icmp || icmpv6"/>
  </proto>
  <proto name="raw" showname="Raw packet data" size="104" pos="0"/>
  <proto name="ipv6" showname="Internet Protocol Version 6, Src: fc00:1234:ffff::1, Dst: fc00:1234:ffff::10" size="40" pos="0">
    <field name="ipv6.version" showname="0110 .... = Version: 6" size="1" pos="0" show="6" value="6" unmaskedvalue="60"/>
    <field name="ip.version" showname="0110 .... = Version: 6 [This field makes the filter match on &quot;ip.version == 6&quot; possible]" hide="yes" size="1" pos="0" show="6" value="6" unmaskedvalue="60"/>
    <field name="ipv6.tclass" showname=".... 0000 0000 .... .... .... .... .... = Traffic class: 0x00 (DSCP: CS0, ECN: Not-ECT)" size="4" pos="0" show="0x00000000" value="0" unmaskedvalue="60072f2f">
      <field name="ipv6.tclass.dscp" showname=".... 0000 00.. .... .... .... .... .... = Differentiated Services Codepoint: Default (0)" size="4" pos="0" show="0" value="0" unmaskedvalue="60072f2f"/>
      <field name="ipv6.tclass.ecn" showname=".... .... ..00 .... .... .... .... .... = Explicit Congestion Notification: Not ECN-Capable Transport (0)" size="4" pos="0" show="0" value="0" unmaskedvalue="60072f2f"/>
    </field>
    <field name="ipv6.flow" showname=".... .... .... 0111 0010 1111 0010 1111 = Flow label: 0x72f2f" size="4" pos="0" show="0x00072f2f" value="72F2F" unmaskedvalue="60072f2f"/>
    <field name="ipv6.plen" showname="Payload length: 64" size="2" pos="4" show="64" value="0040"/>
    <field name="ipv6.nxt" showname="Next header: ICMPv6 (58)" size="1" pos="6" show="58" value="3a"/>
    <field name="ipv6.hlim" showname="Hop limit: 64" size="1" pos="7" show="64" value="40"/>
    <field name="ipv6.src" showname="Source: fc00:1234:ffff::1" size="16" pos="8" show="fc00:1234:ffff::1" value="fc001234ffff00000000000000000001"/>
    <field name="ipv6.addr" showname="Source or Destination Address: fc00:1234:ffff::1" hide="yes" size="16" pos="8" show="fc00:1234:ffff::1" value="fc001234ffff00000000000000000001"/>
    <field name="ipv6.src_host" showname="Source Host: fc00:1234:ffff::1" hide="yes" size="16" pos="8" show="fc00:1234:ffff::1" value="fc001234ffff00000000000000000001"/>
    <field name="ipv6.host" showname="Source or Destination Host: fc00:1234:ffff::1" hide="yes" size="16" pos="8" show="fc00:1234:ffff::1" value="fc001234ffff00000000000000000001"/>
    <field name="ipv6.dst" showname="Destination: fc00:1234:ffff::10" size="16" pos="24" show="fc00:1234:ffff::10" value="fc001234ffff00000000000000000010"/>
    <field name="ipv6.addr" showname="Source or Destination Address: fc00:1234:ffff::10" hide="yes" size="16" pos="24" show="fc00:1234:ffff::10" value="fc001234ffff00000000000000000010"/>
    <field name="ipv6.dst_host" showname="Destination Host: fc00:1234:ffff::10" hide="yes" size="16" pos="24" show="fc00:1234:ffff::10" value="fc001234ffff00000000000000000010"/>
    <field name="ipv6.host" showname="Source or Destination Host: fc00:1234:ffff::10" hide="yes" size="16" pos="24" show="fc00:1234:ffff::10" value="fc001234ffff00000000000000000010"/>
    <field name="" show="Source GeoIP: Unknown" size="16" pos="8" value="fc001234ffff00000000000000000001"/>
    <field name="" show="Destination GeoIP: Unknown" size="16" pos="24" value="fc001234ffff00000000000000000010"/>
  </proto>
  <proto name="icmpv6" showname="Internet Control Message Protocol v6" size="64" pos="40">
    <field name="icmpv6.type" showname="Type: Echo (ping) request (128)" size="1" pos="40" show="128" value="80"/>
    <field name="icmpv6.code" showname="Code: 0" size="1" pos="41" show="0" value="00"/>
    <field name="icmpv6.checksum" showname="Checksum: 0xb271 [correct]" size="2" pos="42" show="0x0000b271" value="b271"/>
    <field name="icmpv6.checksum.status" showname="Checksum Status: Good" size="0" pos="42" show="1"/>
    <field name="icmpv6.echo.identifier" showname="Identifier: 0x3099" size="2" pos="44" show="0x00003099" value="3099"/>
    <field name="icmpv6.echo.sequence_number" showname="Sequence: 2" size="2" pos="46" show="2" value="0002"/>
    <field name="icmpv6.no_resp" showname="No response seen" size="0" pos="40" show="" value="">
      <field name="_ws.expert" showname="Expert Info (Warning/Sequence): No response seen to ICMPv6 request in frame 2" size="0" pos="0">
        <field name="icmpv6.resp_not_found" showname="No response seen to ICMPv6 request in frame 2" size="0" pos="0" show="" value=""/>
        <field name="_ws.expert.message" showname="Message: No response seen to ICMPv6 request in frame 2" hide="yes" size="0" pos="0" show="No response seen to ICMPv6 request in frame 2"/>
        <field name="_ws.expert.severity" showname="Severity level: Warning" size="0" pos="0" show="6291456"/>
        <field name="_ws.expert.group" showname="Group: Sequence" size="0" pos="0" show="33554432"/>
      </field>
    </field>
    <field name="data" value="02bf1e5a000000009d11030000000000101112131415161718191a1b1c1d1e1f202122232425262728292a2b2c2d2e2f3031323334353637">
      <field name="data.data" showname="Data: 02bf1e5a000000009d110300000000001011121314151617..." size="56" pos="48" show="02:bf:1e:5a:00:00:00:00:9d:11:03:00:00:00:00:00:10:11:12:13:14:15:16:17:18:19:1a:1b:1c:1d:1e:1f:20:21:22:23:24:25:26:27:28:29:2a:2b:2c:2d:2e:2f:30:31:32:33:34:35:36:37" value="02bf1e5a000000009d11030000000000101112131415161718191a1b1c1d1e1f202122232425262728292a2b2c2d2e2f3031323334353637"/>
      <field name="data.len" showname="Length: 56" size="0" pos="48" show="56"/>
    </field>
  </proto>
</packet>

<packet>
  <proto name="geninfo" pos="0" showname="General information" size="104">
    <field name="num" pos="0" show="3" showname="Number" value="3" size="104"/>
    <field name="len" pos="0" show="104" showname="Frame Length" value="68" size="104"/>
    <field name="caplen" pos="0" show="104" showname="Captured Length" value="68" size="104"/>
    <field name="timestamp" pos="0" show="Nov 29, 2017 15:06:59.225026099 CET" showname="Captured Time" value="1511964419.225026099" size="104"/>
  </proto>
  <proto name="frame" showname="Frame 3: 104 bytes on wire (832 bits), 104 bytes captured (832 bits) on interface 0" size="104" pos="0">
    <field name="frame.interface_id" showname="Interface id: 0 (toto)" size="0" pos="0" show="0"/>
    <field name="frame.encap_type" showname="Encapsulation type: Raw IP (7)" size="0" pos="0" show="7"/>
    <field name="frame.time" showname="Arrival Time: Nov 29, 2017 15:06:59.225026099 CET" size="0" pos="0" show="Nov 29, 2017 15:06:59.225026099 CET"/>
    <field name="frame.offset_shift" showname="Time shift for this packet: 0.000000000 seconds" size="0" pos="0" show="0.000000000"/>
    <field name="frame.time_epoch" showname="Epoch Time: 1511964419.225026099 seconds" size="0" pos="0" show="1511964419.225026099"/>
    <field name="frame.time_delta" showname="Time delta from previous captured frame: 1.023857052 seconds" size="0" pos="0" show="1.023857052"/>
    <field name="frame.time_delta_displayed" showname="Time delta from previous displayed frame: 1.023857052 seconds" size="0" pos="0" show="1.023857052"/>
    <field name="frame.time_relative" showname="Time since reference or first frame: 2.026760279 seconds" size="0" pos="0" show="2.026760279"/>
    <field name="frame.number" showname="Frame Number: 3" size="0" pos="0" show="3"/>
    <field name="frame.len" showname="Frame Length: 104 bytes (832 bits)" size="0" pos="0" show="104"/>
    <field name="frame.cap_len" showname="Capture Length: 104 bytes (832 bits)" size="0" pos="0" show="104"/>
    <field name="frame.marked" showname="Frame is marked: False" size="0" pos="0" show="0"/>
    <field name="frame.ignored" showname="Frame is ignored: False" size="0" pos="0" show="0"/>
    <field name="frame.protocols" showname="Protocols in frame: raw:ipv6:icmpv6:data" size="0" pos="0" show="raw:ipv6:icmpv6:data"/>
    <field name="frame.coloring_rule.name" showname="Coloring Rule Name: ICMP" size="0" pos="0" show="ICMP"/>
    <field name="frame.coloring_rule.string" showname="Coloring Rule String: icmp || icmpv6" size="0" pos="0" show="icmp || icmpv6"/>
  </proto>
  <proto name="raw" showname="Raw packet data" size="104" pos="0"/>
  <proto name="ipv6" showname="Internet Protocol Version 6, Src: fc00:1234:ffff::1, Dst: fc00:1234:ffff::10" size="40" pos="0">
    <field name="ipv6.version" showname="0110 .... = Version: 6" size="1" pos="0" show="6" value="6" unmaskedvalue="60"/>
    <field name="ip.version" showname="0110 .... = Version: 6 [This field makes the filter match on &quot;ip.version == 6&quot; possible]" hide="yes" size="1" pos="0" show="6" value="6" unmaskedvalue="60"/>
    <field name="ipv6.tclass" showname=".... 0000 0000 .... .... .... .... .... = Traffic class: 0x00 (DSCP: CS0, ECN: Not-ECT)" size="4" pos="0" show="0x00000000" value="0" unmaskedvalue="60072f2f">
      <field name="ipv6.tclass.dscp" showname=".... 0000 00.. .... .... .... .... .... = Differentiated Services Codepoint: Default (0)" size="4" pos="0" show="0" value="0" unmaskedvalue="60072f2f"/>
      <field name="ipv6.tclass.ecn" showname=".... .... ..00 .... .... .... .... .... = Explicit Congestion Notification: Not ECN-Capable Transport (0)" size="4" pos="0" show="0" value="0" unmaskedvalue="60072f2f"/>
    </field>
    <field name="ipv6.flow" showname=".... .... .... 0111 0010 1111 0010 1111 = Flow label: 0x72f2f" size="4" pos="0" show="0x00072f2f" value="72F2F" unmaskedvalue="60072f2f"/>
    <field name="ipv6.plen" showname="Payload length: 64" size="2" pos="4" show="64" value="0040"/>
    <field name="ipv6.nxt" showname="Next header: ICMPv6 (58)" size="1" pos="6" show="58" value="3a"/>
    <field name="ipv6.hlim" showname="Hop limit: 64" size="1" pos="7" show="64" value="40"/>
    <field name="ipv6.src" showname="Source: fc00:1234:ffff::1" size="16" pos="8" show="fc00:1234:ffff::1" value="fc001234ffff00000000000000000001"/>
    <field name="ipv6.addr" showname="Source or Destination Address: fc00:1234:ffff::1" hide="yes" size="16" pos="8" show="fc00:1234:ffff::1" value="fc001234ffff00000000000000000001"/>
    <field name="ipv6.src_host" showname="Source Host: fc00:1234:ffff::1" hide="yes" size="16" pos="8" show="fc00:1234:ffff::1" value="fc001234ffff00000000000000000001"/>
    <field name="ipv6.host" showname="Source or Destination Host: fc00:1234:ffff::1" hide="yes" size="16" pos="8" show="fc00:1234:ffff::1" value="fc001234ffff00000000000000000001"/>
    <field name="ipv6.dst" showname="Destination: fc00:1234:ffff::10" size="16" pos="24" show="fc00:1234:ffff::10" value="fc001234ffff00000000000000000010"/>
    <field name="ipv6.addr" showname="Source or Destination Address: fc00:1234:ffff::10" hide="yes" size="16" pos="24" show="fc00:1234:ffff::10" value="fc001234ffff00000000000000000010"/>
    <field name="ipv6.dst_host" showname="Destination Host: fc00:1234:ffff::10" hide="yes" size="16" pos="24" show="fc00:1234:ffff::10" value="fc001234ffff00000000000000000010"/>
    <field name="ipv6.host" showname="Source or Destination Host: fc00:1234:ffff::10" hide="yes" size="16" pos="24" show="fc00:1234:ffff::10" value="fc001234ffff00000000000000000010"/>
    <field name="" show="Source GeoIP: Unknown" size="16" pos="8" value="fc001234ffff00000000000000000001"/>
    <field name="" show="Destination GeoIP: Unknown" size="16" pos="24" value="fc001234ffff00000000000000000010"/>
  </proto>
  <proto name="icmpv6" showname="Internet Control Message Protocol v6" size="64" pos="40">
    <field name="icmpv6.type" showname="Type: Echo (ping) request (128)" size="1" pos="40" show="128" value="80"/>
    <field name="icmpv6.code" showname="Code: 0" size="1" pos="41" show="0" value="00"/>
    <field name="icmpv6.checksum" showname="Checksum: 0x6713 [correct]" size="2" pos="42" show="0x00006713" value="6713"/>
    <field name="icmpv6.checksum.status" showname="Checksum Status: Good" size="0" pos="42" show="1"/>
    <field name="icmpv6.echo.identifier" showname="Identifier: 0x3099" size="2" pos="44" show="0x00003099" value="3099"/>
    <field name="icmpv6.echo.sequence_number" showname="Sequence: 3" size="2" pos="46" show="3" value="0003"/>
    <field name="icmpv6.no_resp" showname="No response seen" size="0" pos="40" show="" value="">
      <field name="_ws.expert" showname="Expert Info (Warning/Sequence): No response seen to ICMPv6 request in frame 3" size="0" pos="0">
        <field name="icmpv6.resp_not_found" showname="No response seen to ICMPv6 request in frame 3" size="0" pos="0" show="" value=""/>
        <field name="_ws.expert.message" showname="Message: No response seen to ICMPv6 request in frame 3" hide="yes" size="0" pos="0" show="No response seen to ICMPv6 request in frame 3"/>
        <field name="_ws.expert.severity" showname="Severity level: Warning" size="0" pos="0" show="6291456"/>
        <field name="_ws.expert.group" showname="Group: Sequence" size="0" pos="0" show="33554432"/>
      </field>
    </field>
    <field name="data" value="03bf1e5a00000000e76e030000000000101112131415161718191a1b1c1d1e1f202122232425262728292a2b2c2d2e2f3031323334353637">
      <field name="data.data" showname="Data: 03bf1e5a00000000e76e0300000000001011121314151617..." size="56" pos="48" show="03:bf:1e:5a:00:00:00:00:e7:6e:03:00:00:00:00:00:10:11:12:13:14:15:16:17:18:19:1a:1b:1c:1d:1e:1f:20:21:22:23:24:25:26:27:28:29:2a:2b:2c:2d:2e:2f:30:31:32:33:34:35:36:37" value="03bf1e5a00000000e76e030000000000101112131415161718191a1b1c1d1e1f202122232425262728292a2b2c2d2e2f3031323334353637"/>
      <field name="data.len" showname="Length: 56" size="0" pos="48" show="56"/>
    </field>
  </proto>
</packet>

<packet>
  <proto name="geninfo" pos="0" showname="General information" size="104">
    <field name="num" pos="0" show="4" showname="Number" value="4" size="104"/>
    <field name="len" pos="0" show="104" showname="Frame Length" value="68" size="104"/>
    <field name="caplen" pos="0" show="104" showname="Captured Length" value="68" size="104"/>
    <field name="timestamp" pos="0" show="Nov 29, 2017 15:07:00.249194177 CET" showname="Captured Time" value="1511964420.249194177" size="104"/>
  </proto>
  <proto name="frame" showname="Frame 4: 104 bytes on wire (832 bits), 104 bytes captured (832 bits) on interface 0" size="104" pos="0">
    <field name="frame.interface_id" showname="Interface id: 0 (toto)" size="0" pos="0" show="0"/>
    <field name="frame.encap_type" showname="Encapsulation type: Raw IP (7)" size="0" pos="0" show="7"/>
    <field name="frame.time" showname="Arrival Time: Nov 29, 2017 15:07:00.249194177 CET" size="0" pos="0" show="Nov 29, 2017 15:07:00.249194177 CET"/>
    <field name="frame.offset_shift" showname="Time shift for this packet: 0.000000000 seconds" size="0" pos="0" show="0.000000000"/>
    <field name="frame.time_epoch" showname="Epoch Time: 1511964420.249194177 seconds" size="0" pos="0" show="1511964420.249194177"/>
    <field name="frame.time_delta" showname="Time delta from previous captured frame: 1.024168078 seconds" size="0" pos="0" show="1.024168078"/>
    <field name="frame.time_delta_displayed" showname="Time delta from previous displayed frame: 1.024168078 seconds" size="0" pos="0" show="1.024168078"/>
    <field name="frame.time_relative" showname="Time since reference or first frame: 3.050928357 seconds" size="0" pos="0" show="3.050928357"/>
    <field name="frame.number" showname="Frame Number: 4" size="0" pos="0" show="4"/>
    <field name="frame.len" showname="Frame Length: 104 bytes (832 bits)" size="0" pos="0" show="104"/>
    <field name="frame.cap_len" showname="Capture Length: 104 bytes (832 bits)" size="0" pos="0" show="104"/>
    <field name="frame.marked" showname="Frame is marked: False" size="0" pos="0" show="0"/>
    <field name="frame.ignored" showname="Frame is ignored: False" size="0" pos="0" show="0"/>
    <field name="frame.protocols" showname="Protocols in frame: raw:ipv6:icmpv6:data" size="0" pos="0" show="raw:ipv6:icmpv6:data"/>
    <field name="frame.coloring_rule.name" showname="Coloring Rule Name: ICMP" size="0" pos="0" show="ICMP"/>
    <field name="frame.coloring_rule.string" showname="Coloring Rule String: icmp || icmpv6" size="0" pos="0" show="icmp || icmpv6"/>
  </proto>
  <proto name="raw" showname="Raw packet data" size="104" pos="0"/>
  <proto name="ipv6" showname="Internet Protocol Version 6, Src: fc00:1234:ffff::1, Dst: fc00:1234:ffff::10" size="40" pos="0">
    <field name="ipv6.version" showname="0110 .... = Version: 6" size="1" pos="0" show="6" value="6" unmaskedvalue="60"/>
    <field name="ip.version" showname="0110 .... = Version: 6 [This field makes the filter match on &quot;ip.version == 6&quot; possible]" hide="yes" size="1" pos="0" show="6" value="6" unmaskedvalue="60"/>
    <field name="ipv6.tclass" showname=".... 0000 0000 .... .... .... .... .... = Traffic class: 0x00 (DSCP: CS0, ECN: Not-ECT)" size="4" pos="0" show="0x00000000" value="0" unmaskedvalue="60072f2f">
      <field name="ipv6.tclass.dscp" showname=".... 0000 00.. .... .... .... .... .... = Differentiated Services Codepoint: Default (0)" size="4" pos="0" show="0" value="0" unmaskedvalue="60072f2f"/>
      <field name="ipv6.tclass.ecn" showname=".... .... ..00 .... .... .... .... .... = Explicit Congestion Notification: Not ECN-Capable Transport (0)" size="4" pos="0" show="0" value="0" unmaskedvalue="60072f2f"/>
    </field>
    <field name="ipv6.flow" showname=".... .... .... 0111 0010 1111 0010 1111 = Flow label: 0x72f2f" size="4" pos="0" show="0x00072f2f" value="72F2F" unmaskedvalue="60072f2f"/>
    <field name="ipv6.plen" showname="Payload length: 64" size="2" pos="4" show="64" value="0040"/>
    <field name="ipv6.nxt" showname="Next header: ICMPv6 (58)" size="1" pos="6" show="58" value="3a"/>
    <field name="ipv6.hlim" showname="Hop limit: 64" size="1" pos="7" show="64" value="40"/>
    <field name="ipv6.src" showname="Source: fc00:1234:ffff::1" size="16" pos="8" show="fc00:1234:ffff::1" value="fc001234ffff00000000000000000001"/>
    <field name="ipv6.addr" showname="Source or Destination Address: fc00:1234:ffff::1" hide="yes" size="16" pos="8" show="fc00:1234:ffff::1" value="fc001234ffff00000000000000000001"/>
    <field name="ipv6.src_host" showname="Source Host: fc00:1234:ffff::1" hide="yes" size="16" pos="8" show="fc00:1234:ffff::1" value="fc001234ffff00000000000000000001"/>
    <field name="ipv6.host" showname="Source or Destination Host: fc00:1234:ffff::1" hide="yes" size="16" pos="8" show="fc00:1234:ffff::1" value="fc001234ffff00000000000000000001"/>
    <field name="ipv6.dst" showname="Destination: fc00:1234:ffff::10" size="16" pos="24" show="fc00:1234:ffff::10" value="fc001234ffff00000000000000000010"/>
    <field name="ipv6.addr" showname="Source or Destination Address: fc00:1234:ffff::10" hide="yes" size="16" pos="24" show="fc00:1234:ffff::10" value="fc001234ffff00000000000000000010"/>
    <field name="ipv6.dst_host" showname="Destination Host: fc00:1234:ffff::10" hide="yes" size="16" pos="24" show="fc00:1234:ffff::10" value="fc001234ffff00000000000000000010"/>
    <field name="ipv6.host" showname="Source or Destination Host: fc00:1234:ffff::10" hide="yes" size="16" pos="24" show="fc00:1234:ffff::10" value="fc001234ffff00000000000000000010"/>
    <field name="" show="Source GeoIP: Unknown" size="16" pos="8" value="fc001234ffff00000000000000000001"/>
    <field name="" show="Destination GeoIP: Unknown" size="16" pos="24" value="fc001234ffff00000000000000000010"/>
  </proto>
  <proto name="icmpv6" showname="Internet Control Message Protocol v6" size="64" pos="40">
    <field name="icmpv6.type" showname="Type: Echo (ping) request (128)" size="1" pos="40" show="128" value="80"/>
    <field name="icmpv6.code" showname="Code: 0" size="1" pos="41" show="0" value="00"/>
    <field name="icmpv6.checksum" showname="Checksum: 0x16b4 [correct]" size="2" pos="42" show="0x000016b4" value="16b4"/>
    <field name="icmpv6.checksum.status" showname="Checksum Status: Good" size="0" pos="42" show="1"/>
    <field name="icmpv6.echo.identifier" showname="Identifier: 0x3099" size="2" pos="44" show="0x00003099" value="3099"/>
    <field name="icmpv6.echo.sequence_number" showname="Sequence: 4" size="2" pos="46" show="4" value="0004"/>
    <field name="icmpv6.no_resp" showname="No response seen" size="0" pos="40" show="" value="">
      <field name="_ws.expert" showname="Expert Info (Warning/Sequence): No response seen to ICMPv6 request in frame 4" size="0" pos="0">
        <field name="icmpv6.resp_not_found" showname="No response seen to ICMPv6 request in frame 4" size="0" pos="0" show="" value=""/>
        <field name="_ws.expert.message" showname="Message: No response seen to ICMPv6 request in frame 4" hide="yes" size="0" pos="0" show="No response seen to ICMPv6 request in frame 4"/>
        <field name="_ws.expert.severity" showname="Severity level: Warning" size="0" pos="0" show="6291456"/>
        <field name="_ws.expert.group" showname="Group: Sequence" size="0" pos="0" show="33554432"/>
      </field>
    </field>
    <field name="data" value="04bf1e5a0000000036cd030000000000101112131415161718191a1b1c1d1e1f202122232425262728292a2b2c2d2e2f3031323334353637">
      <field name="data.data" showname="Data: 04bf1e5a0000000036cd0300000000001011121314151617..." size="56" pos="48" show="04:bf:1e:5a:00:00:00:00:36:cd:03:00:00:00:00:00:10:11:12:13:14:15:16:17:18:19:1a:1b:1c:1d:1e:1f:20:21:22:23:24:25:26:27:28:29:2a:2b:2c:2d:2e:2f:30:31:32:33:34:35:36:37" value="04bf1e5a0000000036cd030000000000101112131415161718191a1b1c1d1e1f202122232425262728292a2b2c2d2e2f3031323334353637"/>
      <field name="data.len" showname="Length: 56" size="0" pos="48" show="56"/>
    </field>
  </proto>
</packet>

<packet>
  <proto name="geninfo" pos="0" showname="General information" size="104">
    <field name="num" pos="0" show="5" showname="Number" value="5" size="104"/>
    <field name="len" pos="0" show="104" showname="Frame Length" value="68" size="104"/>
    <field name="caplen" pos="0" show="104" showname="Captured Length" value="68" size="104"/>
    <field name="timestamp" pos="0" show="Nov 29, 2017 15:07:01.273190459 CET" showname="Captured Time" value="1511964421.273190459" size="104"/>
  </proto>
  <proto name="frame" showname="Frame 5: 104 bytes on wire (832 bits), 104 bytes captured (832 bits) on interface 0" size="104" pos="0">
    <field name="frame.interface_id" showname="Interface id: 0 (toto)" size="0" pos="0" show="0"/>
    <field name="frame.encap_type" showname="Encapsulation type: Raw IP (7)" size="0" pos="0" show="7"/>
    <field name="frame.time" showname="Arrival Time: Nov 29, 2017 15:07:01.273190459 CET" size="0" pos="0" show="Nov 29, 2017 15:07:01.273190459 CET"/>
    <field name="frame.offset_shift" showname="Time shift for this packet: 0.000000000 seconds" size="0" pos="0" show="0.000000000"/>
    <field name="frame.time_epoch" showname="Epoch Time: 1511964421.273190459 seconds" size="0" pos="0" show="1511964421.273190459"/>
    <field name="frame.time_delta" showname="Time delta from previous captured frame: 1.023996282 seconds" size="0" pos="0" show="1.023996282"/>
    <field name="frame.time_delta_displayed" showname="Time delta from previous displayed frame: 1.023996282 seconds" size="0" pos="0" show="1.023996282"/>
    <field name="frame.time_relative" showname="Time since reference or first frame: 4.074924639 seconds" size="0" pos="0" show="4.074924639"/>
    <field name="frame.number" showname="Frame Number: 5" size="0" pos="0" show="5"/>
    <field name="frame.len" showname="Frame Length: 104 bytes (832 bits)" size="0" pos="0" show="104"/>
    <field name="frame.cap_len" showname="Capture Length: 104 bytes (832 bits)" size="0" pos="0" show="104"/>
    <field name="frame.marked" showname="Frame is marked: False" size="0" pos="0" show="0"/>
    <field name="frame.ignored" showname="Frame is ignored: False" size="0" pos="0" show="0"/>
    <field name="frame.protocols" showname="Protocols in frame: raw:ipv6:icmpv6:data" size="0" pos="0" show="raw:ipv6:icmpv6:data"/>
    <field name="frame.coloring_rule.name" showname="Coloring Rule Name: ICMP" size="0" pos="0" show="ICMP"/>
    <field name="frame.coloring_rule.string" showname="Coloring Rule String: icmp || icmpv6" size="0" pos="0" show="icmp || icmpv6"/>
  </proto>
  <proto name="raw" showname="Raw packet data" size="104" pos="0"/>
  <proto name="ipv6" showname="Internet Protocol Version 6, Src: fc00:1234:ffff::1, Dst: fc00:1234:ffff::10" size="40" pos="0">
    <field name="ipv6.version" showname="0110 .... = Version: 6" size="1" pos="0" show="6" value="6" unmaskedvalue="60"/>
    <field name="ip.version" showname="0110 .... = Version: 6 [This field makes the filter match on &quot;ip.version == 6&quot; possible]" hide="yes" size="1" pos="0" show="6" value="6" unmaskedvalue="60"/>
    <field name="ipv6.tclass" showname=".... 0000 0000 .... .... .... .... .... = Traffic class: 0x00 (DSCP: CS0, ECN: Not-ECT)" size="4" pos="0" show="0x00000000" value="0" unmaskedvalue="60072f2f">
      <field name="ipv6.tclass.dscp" showname=".... 0000 00.. .... .... .... .... .... = Differentiated Services Codepoint: Default (0)" size="4" pos="0" show="0" value="0" unmaskedvalue="60072f2f"/>
      <field name="ipv6.tclass.ecn" showname=".... .... ..00 .... .... .... .... .... = Explicit Congestion Notification: Not ECN-Capable Transport (0)" size="4" pos="0" show="0" value="0" unmaskedvalue="60072f2f"/>
    </field>
    <field name="ipv6.flow" showname=".... .... .... 0111 0010 1111 0010 1111 = Flow label: 0x72f2f" size="4" pos="0" show="0x00072f2f" value="72F2F" unmaskedvalue="60072f2f"/>
    <field name="ipv6.plen" showname="Payload length: 64" size="2" pos="4" show="64" value="0040"/>
    <field name="ipv6.nxt" showname="Next header: ICMPv6 (58)" size="1" pos="6" show="58" value="3a"/>
    <field name="ipv6.hlim" showname="Hop limit: 64" size="1" pos="7" show="64" value="40"/>
    <field name="ipv6.src" showname="Source: fc00:1234:ffff::1" size="16" pos="8" show="fc00:1234:ffff::1" value="fc001234ffff00000000000000000001"/>
    <field name="ipv6.addr" showname="Source or Destination Address: fc00:1234:ffff::1" hide="yes" size="16" pos="8" show="fc00:1234:ffff::1" value="fc001234ffff00000000000000000001"/>
    <field name="ipv6.src_host" showname="Source Host: fc00:1234:ffff::1" hide="yes" size="16" pos="8" show="fc00:1234:ffff::1" value="fc001234ffff00000000000000000001"/>
    <field name="ipv6.host" showname="Source or Destination Host: fc00:1234:ffff::1" hide="yes" size="16" pos="8" show="fc00:1234:ffff::1" value="fc001234ffff00000000000000000001"/>
    <field name="ipv6.dst" showname="Destination: fc00:1234:ffff::10" size="16" pos="24" show="fc00:1234:ffff::10" value="fc001234ffff00000000000000000010"/>
    <field name="ipv6.addr" showname="Source or Destination Address: fc00:1234:ffff::10" hide="yes" size="16" pos="24" show="fc00:1234:ffff::10" value="fc001234ffff00000000000000000010"/>
    <field name="ipv6.dst_host" showname="Destination Host: fc00:1234:ffff::10" hide="yes" size="16" pos="24" show="fc00:1234:ffff::10" value="fc001234ffff00000000000000000010"/>
    <field name="ipv6.host" showname="Source or Destination Host: fc00:1234:ffff::10" hide="yes" size="16" pos="24" show="fc00:1234:ffff::10" value="fc001234ffff00000000000000000010"/>
    <field name="" show="Source GeoIP: Unknown" size="16" pos="8" value="fc001234ffff00000000000000000001"/>
    <field name="" show="Destination GeoIP: Unknown" size="16" pos="24" value="fc001234ffff00000000000000000010"/>
  </proto>
  <proto name="icmpv6" showname="Internet Control Message Protocol v6" size="64" pos="40">
    <field name="icmpv6.type" showname="Type: Echo (ping) request (128)" size="1" pos="40" show="128" value="80"/>
    <field name="icmpv6.code" showname="Code: 0" size="1" pos="41" show="0" value="00"/>
    <field name="icmpv6.checksum" showname="Checksum: 0x5955 [correct]" size="2" pos="42" show="0x00005955" value="5955"/>
    <field name="icmpv6.checksum.status" showname="Checksum Status: Good" size="0" pos="42" show="1"/>
    <field name="icmpv6.echo.identifier" showname="Identifier: 0x3099" size="2" pos="44" show="0x00003099" value="3099"/>
    <field name="icmpv6.echo.sequence_number" showname="Sequence: 5" size="2" pos="46" show="5" value="0005"/>
    <field name="icmpv6.no_resp" showname="No response seen" size="0" pos="40" show="" value="">
      <field name="_ws.expert" showname="Expert Info (Warning/Sequence): No response seen to ICMPv6 request in frame 5" size="0" pos="0">
        <field name="icmpv6.resp_not_found" showname="No response seen to ICMPv6 request in frame 5" size="0" pos="0" show="" value=""/>
        <field name="_ws.expert.message" showname="Message: No response seen to ICMPv6 request in frame 5" hide="yes" size="0" pos="0" show="No response seen to ICMPv6 request in frame 5"/>
        <field name="_ws.expert.severity" showname="Severity level: Warning" size="0" pos="0" show="6291456"/>
        <field name="_ws.expert.group" showname="Group: Sequence" size="0" pos="0" show="33554432"/>
      </field>
    </field>
    <field name="data" value="05bf1e5a00000000f22a040000000000101112131415161718191a1b1c1d1e1f202122232425262728292a2b2c2d2e2f3031323334353637">
      <field name="data.data" showname="Data: 05bf1e5a00000000f22a0400000000001011121314151617..." size="56" pos="48" show="05:bf:1e:5a:00:00:00:00:f2:2a:04:00:00:00:00:00:10:11:12:13:14:15:16:17:18:19:1a:1b:1c:1d:1e:1f:20:21:22:23:24:25:26:27:28:29:2a:2b:2c:2d:2e:2f:30:31:32:33:34:35:36:37" value="05bf1e5a00000000f22a040000000000101112131415161718191a1b1c1d1e1f202122232425262728292a2b2c2d2e2f3031323334353637"/>
      <field name="data.len" showname="Length: 56" size="0" pos="48" show="56"/>
    </field>
  </proto>
</packet>

<packet>
  <proto name="geninfo" pos="0" showname="General information" size="104">
    <field name="num" pos="0" show="6" showname="Number" value="6" size="104"/>
    <field name="len" pos="0" show="104" showname="Frame Length" value="68" size="104"/>
    <field name="caplen" pos="0" show="104" showname="Captured Length" value="68" size="104"/>
    <field name="timestamp" pos="0" show="Nov 29, 2017 15:07:02.297088630 CET" showname="Captured Time" value="1511964422.297088630" size="104"/>
  </proto>
  <proto name="frame" showname="Frame 6: 104 bytes on wire (832 bits), 104 bytes captured (832 bits) on interface 0" size="104" pos="0">
    <field name="frame.interface_id" showname="Interface id: 0 (toto)" size="0" pos="0" show="0"/>
    <field name="frame.encap_type" showname="Encapsulation type: Raw IP (7)" size="0" pos="0" show="7"/>
    <field name="frame.time" showname="Arrival Time: Nov 29, 2017 15:07:02.297088630 CET" size="0" pos="0" show="Nov 29, 2017 15:07:02.297088630 CET"/>
    <field name="frame.offset_shift" showname="Time shift for this packet: 0.000000000 seconds" size="0" pos="0" show="0.000000000"/>
    <field name="frame.time_epoch" showname="Epoch Time: 1511964422.297088630 seconds" size="0" pos="0" show="1511964422.297088630"/>
    <field name="frame.time_delta" showname="Time delta from previous captured frame: 1.023898171 seconds" size="0" pos="0" show="1.023898171"/>
    <field name="frame.time_delta_displayed" showname="Time delta from previous displayed frame: 1.023898171 seconds" size="0" pos="0" show="1.023898171"/>
    <field name="frame.time_relative" showname="Time since reference or first frame: 5.098822810 seconds" size="0" pos="0" show="5.098822810"/>
    <field name="frame.number" showname="Frame Number: 6" size="0" pos="0" show="6"/>
    <field name="frame.len" showname="Frame Length: 104 bytes (832 bits)" size="0" pos="0" show="104"/>
    <field name="frame.cap_len" showname="Capture Length: 104 bytes (832 bits)" size="0" pos="0" show="104"/>
    <field name="frame.marked" showname="Frame is marked: False" size="0" pos="0" show="0"/>
    <field name="frame.ignored" showname="Frame is ignored: False" size="0" pos="0" show="0"/>
    <field name="frame.protocols" showname="Protocols in frame: raw:ipv6:icmpv6:data" size="0" pos="0" show="raw:ipv6:icmpv6:data"/>
    <field name="frame.coloring_rule.name" showname="Coloring Rule Name: ICMP" size="0" pos="0" show="ICMP"/>
    <field name="frame.coloring_rule.string" showname="Coloring Rule String: icmp || icmpv6" size="0" pos="0" show="icmp || icmpv6"/>
  </proto>
  <proto name="raw" showname="Raw packet data" size="104" pos="0"/>
  <proto name="ipv6" showname="Internet Protocol Version 6, Src: fc00:1234:ffff::1, Dst: fc00:1234:ffff::10" size="40" pos="0">
    <field name="ipv6.version" showname="0110 .... = Version: 6" size="1" pos="0" show="6" value="6" unmaskedvalue="60"/>
    <field name="ip.version" showname="0110 .... = Version: 6 [This field makes the filter match on &quot;ip.version == 6&quot; possible]" hide="yes" size="1" pos="0" show="6" value="6" unmaskedvalue="60"/>
    <field name="ipv6.tclass" showname=".... 0000 0000 .... .... .... .... .... = Traffic class: 0x00 (DSCP: CS0, ECN: Not-ECT)" size="4" pos="0" show="0x00000000" value="0" unmaskedvalue="60072f2f">
      <field name="ipv6.tclass.dscp" showname=".... 0000 00.. .... .... .... .... .... = Differentiated Services Codepoint: Default (0)" size="4" pos="0" show="0" value="0" unmaskedvalue="60072f2f"/>
      <field name="ipv6.tclass.ecn" showname=".... .... ..00 .... .... .... .... .... = Explicit Congestion Notification: Not ECN-Capable Transport (0)" size="4" pos="0" show="0" value="0" unmaskedvalue="60072f2f"/>
    </field>
    <field name="ipv6.flow" showname=".... .... .... 0111 0010 1111 0010 1111 = Flow label: 0x72f2f" size="4" pos="0" show="0x00072f2f" value="72F2F" unmaskedvalue="60072f2f"/>
    <field name="ipv6.plen" showname="Payload length: 64" size="2" pos="4" show="64" value="0040"/>
    <field name="ipv6.nxt" showname="Next header: ICMPv6 (58)" size="1" pos="6" show="58" value="3a"/>
    <field name="ipv6.hlim" showname="Hop limit: 64" size="1" pos="7" show="64" value="40"/>
    <field name="ipv6.src" showname="Source: fc00:1234:ffff::1" size="16" pos="8" show="fc00:1234:ffff::1" value="fc001234ffff00000000000000000001"/>
    <field name="ipv6.addr" showname="Source or Destination Address: fc00:1234:ffff::1" hide="yes" size="16" pos="8" show="fc00:1234:ffff::1" value="fc001234ffff00000000000000000001"/>
    <field name="ipv6.src_host" showname="Source Host: fc00:1234:ffff::1" hide="yes" size="16" pos="8" show="fc00:1234:ffff::1" value="fc001234ffff00000000000000000001"/>
    <field name="ipv6.host" showname="Source or Destination Host: fc00:1234:ffff::1" hide="yes" size="16" pos="8" show="fc00:1234:ffff::1" value="fc001234ffff00000000000000000001"/>
    <field name="ipv6.dst" showname="Destination: fc00:1234:ffff::10" size="16" pos="24" show="fc00:1234:ffff::10" value="fc001234ffff00000000000000000010"/>
    <field name="ipv6.addr" showname="Source or Destination Address: fc00:1234:ffff::10" hide="yes" size="16" pos="24" show="fc00:1234:ffff::10" value="fc001234ffff00000000000000000010"/>
    <field name="ipv6.dst_host" showname="Destination Host: fc00:1234:ffff::10" hide="yes" size="16" pos="24" show="fc00:1234:ffff::10" value="fc001234ffff00000000000000000010"/>
    <field name="ipv6.host" showname="Source or Destination Host: fc00:1234:ffff::10" hide="yes" size="16" pos="24" show="fc00:1234:ffff::10" value="fc001234ffff00000000000000000010"/>
    <field name="" show="Source GeoIP: Unknown" size="16" pos="8" value="fc001234ffff00000000000000000001"/>
    <field name="" show="Destination GeoIP: Unknown" size="16" pos="24" value="fc001234ffff00000000000000000010"/>
  </proto>
  <proto name="icmpv6" showname="Internet Control Message Protocol v6" size="64" pos="40">
    <field name="icmpv6.type" showname="Type: Echo (ping) request (128)" size="1" pos="40" show="128" value="80"/>
    <field name="icmpv6.code" showname="Code: 0" size="1" pos="41" show="0" value="00"/>
    <field name="icmpv6.checksum" showname="Checksum: 0xfaf6 [correct]" size="2" pos="42" show="0x0000faf6" value="faf6"/>
    <field name="icmpv6.checksum.status" showname="Checksum Status: Good" size="0" pos="42" show="1"/>
    <field name="icmpv6.echo.identifier" showname="Identifier: 0x3099" size="2" pos="44" show="0x00003099" value="3099"/>
    <field name="icmpv6.echo.sequence_number" showname="Sequence: 6" size="2" pos="46" show="6" value="0006"/>
    <field name="icmpv6.no_resp" showname="No response seen" size="0" pos="40" show="" value="">
      <field name="_ws.expert" showname="Expert Info (Warning/Sequence): No response seen to ICMPv6 request in frame 6" size="0" pos="0">
        <field name="icmpv6.resp_not_found" showname="No response seen to ICMPv6 request in frame 6" size="0" pos="0" show="" value=""/>
        <field name="_ws.expert.message" showname="Message: No response seen to ICMPv6 request in frame 6" hide="yes" size="0" pos="0" show="No response seen to ICMPv6 request in frame 6"/>
        <field name="_ws.expert.severity" showname="Severity level: Warning" size="0" pos="0" show="6291456"/>
        <field name="_ws.expert.group" showname="Group: Sequence" size="0" pos="0" show="33554432"/>
      </field>
    </field>
    <field name="data" value="06bf1e5a000000004f88040000000000101112131415161718191a1b1c1d1e1f202122232425262728292a2b2c2d2e2f3031323334353637">
      <field name="data.data" showname="Data: 06bf1e5a000000004f880400000000001011121314151617..." size="56" pos="48" show="06:bf:1e:5a:00:00:00:00:4f:88:04:00:00:00:00:00:10:11:12:13:14:15:16:17:18:19:1a:1b:1c:1d:1e:1f:20:21:22:23:24:25:26:27:28:29:2a:2b:2c:2d:2e:2f:30:31:32:33:34:35:36:37" value="06bf1e5a000000004f88040000000000101112131415161718191a1b1c1d1e1f202122232425262728292a2b2c2d2e2f3031323334353637"/>
      <field name="data.len" showname="Length: 56" size="0" pos="48" show="56"/>
    </field>
  </proto>
</packet>

<packet>
  <proto name="geninfo" pos="0" showname="General information" size="104">
    <field name="num" pos="0" show="7" showname="Number" value="7" size="104"/>
    <field name="len" pos="0" show="104" showname="Frame Length" value="68" size="104"/>
    <field name="caplen" pos="0" show="104" showname="Captured Length" value="68" size="104"/>
    <field name="timestamp" pos="0" show="Nov 29, 2017 15:07:03.321198817 CET" showname="Captured Time" value="1511964423.321198817" size="104"/>
  </proto>
  <proto name="frame" showname="Frame 7: 104 bytes on wire (832 bits), 104 bytes captured (832 bits) on interface 0" size="104" pos="0">
    <field name="frame.interface_id" showname="Interface id: 0 (toto)" size="0" pos="0" show="0"/>
    <field name="frame.encap_type" showname="Encapsulation type: Raw IP (7)" size="0" pos="0" show="7"/>
    <field name="frame.time" showname="Arrival Time: Nov 29, 2017 15:07:03.321198817 CET" size="0" pos="0" show="Nov 29, 2017 15:07:03.321198817 CET"/>
    <field name="frame.offset_shift" showname="Time shift for this packet: 0.000000000 seconds" size="0" pos="0" show="0.000000000"/>
    <field name="frame.time_epoch" showname="Epoch Time: 1511964423.321198817 seconds" size="0" pos="0" show="1511964423.321198817"/>
    <field name="frame.time_delta" showname="Time delta from previous captured frame: 1.024110187 seconds" size="0" pos="0" show="1.024110187"/>
    <field name="frame.time_delta_displayed" showname="Time delta from previous displayed frame: 1.024110187 seconds" size="0" pos="0" show="1.024110187"/>
    <field name="frame.time_relative" showname="Time since reference or first frame: 6.122932997 seconds" size="0" pos="0" show="6.122932997"/>
    <field name="frame.number" showname="Frame Number: 7" size="0" pos="0" show="7"/>
    <field name="frame.len" showname="Frame Length: 104 bytes (832 bits)" size="0" pos="0" show="104"/>
    <field name="frame.cap_len" showname="Capture Length: 104 bytes (832 bits)" size="0" pos="0" show="104"/>
    <field name="frame.marked" showname="Frame is marked: False" size="0" pos="0" show="0"/>
    <field name="frame.ignored" showname="Frame is ignored: False" size="0" pos="0" show="0"/>
    <field name="frame.protocols" showname="Protocols in frame: raw:ipv6:icmpv6:data" size="0" pos="0" show="raw:ipv6:icmpv6:data"/>
    <field name="frame.coloring_rule.name" showname="Coloring Rule Name: ICMP" size="0" pos="0" show="ICMP"/>
    <field name="frame.coloring_rule.string" showname="Coloring Rule String: icmp || icmpv6" size="0" pos="0" show="icmp || icmpv6"/>
  </proto>
  <proto name="raw" showname="Raw packet data" size="104" pos="0"/>
  <proto name="ipv6" showname="Internet Protocol Version 6, Src: fc00:1234:ffff::1, Dst: fc00:1234:ffff::10" size="40" pos="0">
    <field name="ipv6.version" showname="0110 .... = Version: 6" size="1" pos="0" show="6" value="6" unmaskedvalue="60"/>
    <field name="ip.version" showname="0110 .... = Version: 6 [This field makes the filter match on &quot;ip.version == 6&quot; possible]" hide="yes" size="1" pos="0" show="6" value="6" unmaskedvalue="60"/>
    <field name="ipv6.tclass" showname=".... 0000 0000 .... .... .... .... .... = Traffic class: 0x00 (DSCP: CS0, ECN: Not-ECT)" size="4" pos="0" show="0x00000000" value="0" unmaskedvalue="60072f2f">
      <field name="ipv6.tclass.dscp" showname=".... 0000 00.. .... .... .... .... .... = Differentiated Services Codepoint: Default (0)" size="4" pos="0" show="0" value="0" unmaskedvalue="60072f2f"/>
      <field name="ipv6.tclass.ecn" showname=".... .... ..00 .... .... .... .... .... = Explicit Congestion Notification: Not ECN-Capable Transport (0)" size="4" pos="0" show="0" value="0" unmaskedvalue="60072f2f"/>
    </field>
    <field name="ipv6.flow" showname=".... .... .... 0111 0010 1111 0010 1111 = Flow label: 0x72f2f" size="4" pos="0" show="0x00072f2f" value="72F2F" unmaskedvalue="60072f2f"/>
    <field name="ipv6.plen" showname="Payload length: 64" size="2" pos="4" show="64" value="0040"/>
    <field name="ipv6.nxt" showname="Next header: ICMPv6 (58)" size="1" pos="6" show="58" value="3a"/>
    <field name="ipv6.hlim" showname="Hop limit: 64" size="1" pos="7" show="64" value="40"/>
    <field name="ipv6.src" showname="Source: fc00:1234:ffff::1" size="16" pos="8" show="fc00:1234:ffff::1" value="fc001234ffff00000000000000000001"/>
    <field name="ipv6.addr" showname="Source or Destination Address: fc00:1234:ffff::1" hide="yes" size="16" pos="8" show="fc00:1234:ffff::1" value="fc001234ffff00000000000000000001"/>
    <field name="ipv6.src_host" showname="Source Host: fc00:1234:ffff::1" hide="yes" size="16" pos="8" show="fc00:1234:ffff::1" value="fc001234ffff00000000000000000001"/>
    <field name="ipv6.host" showname="Source or Destination Host: fc00:1234:ffff::1" hide="yes" size="16" pos="8" show="fc00:1234:ffff::1" value="fc001234ffff00000000000000000001"/>
    <field name="ipv6.dst" showname="Destination: fc00:1234:ffff::10" size="16" pos="24" show="fc00:1234:ffff::10" value="fc001234ffff00000000000000000010"/>
    <field name="ipv6.addr" showname="Source or Destination Address: fc00:1234:ffff::10" hide="yes" size="16" pos="24" show="fc00:1234:ffff::10" value="fc001234ffff00000000000000000010"/>
    <field name="ipv6.dst_host" showname="Destination Host: fc00:1234:ffff::10" hide="yes" size="16" pos="24" show="fc00:1234:ffff::10" value="fc001234ffff00000000000000000010"/>
    <field name="ipv6.host" showname="Source or Destination Host: fc00:1234:ffff::10" hide="yes" size="16" pos="24" show="fc00:1234:ffff::10" value="fc001234ffff00000000000000000010"/>
    <field name="" show="Source GeoIP: Unknown" size="16" pos="8" value="fc001234ffff00000000000000000001"/>
    <field name="" show="Destination GeoIP: Unknown" size="16" pos="24" value="fc001234ffff00000000000000000010"/>
  </proto>
  <proto name="icmpv6" showname="Internet Control Message Protocol v6" size="64" pos="40">
    <field name="icmpv6.type" showname="Type: Echo (ping) request (128)" size="1" pos="40" show="128" value="80"/>
    <field name="icmpv6.code" showname="Code: 0" size="1" pos="41" show="0" value="00"/>
    <field name="icmpv6.checksum" showname="Checksum: 0xcd97 [correct]" size="2" pos="42" show="0x0000cd97" value="cd97"/>
    <field name="icmpv6.checksum.status" showname="Checksum Status: Good" size="0" pos="42" show="1"/>
    <field name="icmpv6.echo.identifier" showname="Identifier: 0x3099" size="2" pos="44" show="0x00003099" value="3099"/>
    <field name="icmpv6.echo.sequence_number" showname="Sequence: 7" size="2" pos="46" show="7" value="0007"/>
    <field name="icmpv6.no_resp" showname="No response seen" size="0" pos="40" show="" value="">
      <field name="_ws.expert" showname="Expert Info (Warning/Sequence): No response seen to ICMPv6 request in frame 7" size="0" pos="0">
        <field name="icmpv6.resp_not_found" showname="No response seen to ICMPv6 request in frame 7" size="0" pos="0" show="" value=""/>
        <field name="_ws.expert.message" showname="Message: No response seen to ICMPv6 request in frame 7" hide="yes" size="0" pos="0" show="No response seen to ICMPv6 request in frame 7"/>
        <field name="_ws.expert.severity" showname="Severity level: Warning" size="0" pos="0" show="6291456"/>
        <field name="_ws.expert.group" showname="Group: Sequence" size="0" pos="0" show="33554432"/>
      </field>
    </field>
    <field name="data" value="07bf1e5a000000007be6040000000000101112131415161718191a1b1c1d1e1f202122232425262728292a2b2c2d2e2f3031323334353637">
      <field name="data.data" showname="Data: 07bf1e5a000000007be60400000000001011121314151617..." size="56" pos="48" show="07:bf:1e:5a:00:00:00:00:7b:e6:04:00:00:00:00:00:10:11:12:13:14:15:16:17:18:19:1a:1b:1c:1d:1e:1f:20:21:22:23:24:25:26:27:28:29:2a:2b:2c:2d:2e:2f:30:31:32:33:34:35:36:37" value="07bf1e5a000000007be6040000000000101112131415161718191a1b1c1d1e1f202122232425262728292a2b2c2d2e2f3031323334353637"/>
      <field name="data.len" showname="Length: 56" size="0" pos="48" show="56"/>
    </field>
  </proto>
</packet>

</pdml>
